target datalayout = "e-m:e-p270:32:32-p271:32:32-p272:64:64-i64:64-i128:128-f80:128-n8:16:32:64-S128"
target triple = "x86_64-pc-linux-gnu"

%struct.XPoint = type { i16, i16 }
%struct.XDrawHandlerData = type { i64, ptr, ptr, [256 x %struct.XPoint], i32, i32 }
%struct._DrawHandler = type { ptr, ptr, ptr, i32, i32, i32, i32, float, float, float, float, ptr }

; Function Attrs: nounwind uwtable
define internal void @storePoint(ptr noundef %0, i32 noundef %1, i32 noundef %2) #0 {
  %4 = alloca ptr, align 8
  %5 = alloca i32, align 4
  %6 = alloca i32, align 4
  %7 = alloca ptr, align 8
  %8 = alloca ptr, align 8
  %9 = alloca i32, align 4
  %10 = alloca i32, align 4
  store ptr %0, ptr %4, align 8
  store i32 %1, ptr %5, align 4
  store i32 %2, ptr %6, align 4
  %11 = load ptr, ptr %4, align 8
  %12 = getelementptr inbounds %struct._DrawHandler, ptr %11, i32 0, i32 11
  %13 = load ptr, ptr %12, align 8
  store ptr %13, ptr %7, align 8
  br label %14

14:                                               ; preds = %3
  %15 = load ptr, ptr %7, align 8
  %16 = getelementptr inbounds %struct.XDrawHandlerData, ptr %15, i32 0, i32 2
  %17 = load ptr, ptr %16, align 8
  store ptr %17, ptr %8, align 8
  %18 = load ptr, ptr %7, align 8
  %19 = getelementptr inbounds %struct.XDrawHandlerData, ptr %18, i32 0, i32 4
  %20 = load i32, ptr %19, align 8
  store i32 %20, ptr %9, align 4
  %21 = load i32, ptr %9, align 4
  %22 = load ptr, ptr %7, align 8
  %23 = getelementptr inbounds %struct.XDrawHandlerData, ptr %22, i32 0, i32 5
  %24 = load i32, ptr %23, align 4
  %25 = icmp sge i32 %21, %24
  br i1 %25, label %26, label %67

26:                                               ; preds = %14
  %27 = load ptr, ptr %7, align 8
  %28 = getelementptr inbounds %struct.XDrawHandlerData, ptr %27, i32 0, i32 5
  %29 = load i32, ptr %28, align 4
  %30 = mul nsw i32 %29, 2
  store i32 %30, ptr %10, align 4
  %31 = load ptr, ptr %7, align 8
  %32 = getelementptr inbounds %struct.XDrawHandlerData, ptr %31, i32 0, i32 2
  %33 = load ptr, ptr %32, align 8
  %34 = load ptr, ptr %7, align 8
  %35 = getelementptr inbounds %struct.XDrawHandlerData, ptr %34, i32 0, i32 3
  %36 = getelementptr inbounds [256 x %struct.XPoint], ptr %35, i64 0, i64 0
  %37 = icmp eq ptr %33, %36
  br i1 %37, label %38, label %52

38:                                               ; preds = %26
  %39 = load i32, ptr %10, align 4
  %40 = sext i32 %39 to i64
  %41 = mul i64 %40, 4
  %42 = call noalias ptr @malloc(i64 noundef %41) #9
  %43 = load ptr, ptr %7, align 8
  %44 = getelementptr inbounds %struct.XDrawHandlerData, ptr %43, i32 0, i32 2
  store ptr %42, ptr %44, align 8
  %45 = load ptr, ptr %7, align 8
  %46 = getelementptr inbounds %struct.XDrawHandlerData, ptr %45, i32 0, i32 2
  %47 = load ptr, ptr %46, align 8
  %48 = load ptr, ptr %8, align 8
  %49 = load i32, ptr %9, align 4
  %50 = sext i32 %49 to i64
  %51 = mul i64 %50, 4
  call void @llvm.memcpy.p0.p0.i64(ptr align 2 %47, ptr align 2 %48, i64 %51, i1 false)
  br label %60

52:                                               ; preds = %26
  %53 = load ptr, ptr %8, align 8
  %54 = load i32, ptr %10, align 4
  %55 = sext i32 %54 to i64
  %56 = mul i64 %55, 4
  %57 = call ptr @realloc(ptr noundef %53, i64 noundef %56) #10
  %58 = load ptr, ptr %7, align 8
  %59 = getelementptr inbounds %struct.XDrawHandlerData, ptr %58, i32 0, i32 2
  store ptr %57, ptr %59, align 8
  br label %60

60:                                               ; preds = %52, %38
  %61 = load ptr, ptr %7, align 8
  %62 = getelementptr inbounds %struct.XDrawHandlerData, ptr %61, i32 0, i32 2
  %63 = load ptr, ptr %62, align 8
  store ptr %63, ptr %8, align 8
  %64 = load i32, ptr %10, align 4
  %65 = load ptr, ptr %7, align 8
  %66 = getelementptr inbounds %struct.XDrawHandlerData, ptr %65, i32 0, i32 5
  store i32 %64, ptr %66, align 4
  br label %67

67:                                               ; preds = %60, %14
  %68 = load i32, ptr %9, align 4
  %69 = load ptr, ptr %8, align 8
  %70 = sext i32 %68 to i64
  %71 = getelementptr inbounds %struct.XPoint, ptr %69, i64 %70
  store ptr %71, ptr %8, align 8
  %72 = load i32, ptr %5, align 4
  %73 = trunc i32 %72 to i16
  %74 = load ptr, ptr %8, align 8
  %75 = getelementptr inbounds %struct.XPoint, ptr %74, i32 0, i32 0
  store i16 %73, ptr %75, align 2
  %76 = load i32, ptr %6, align 4
  %77 = trunc i32 %76 to i16
  %78 = load ptr, ptr %8, align 8
  %79 = getelementptr inbounds %struct.XPoint, ptr %78, i32 0, i32 1
  store i16 %77, ptr %79, align 2
  %80 = load i32, ptr %9, align 4
  %81 = add nsw i32 %80, 1
  %82 = load ptr, ptr %7, align 8
  %83 = getelementptr inbounds %struct.XDrawHandlerData, ptr %82, i32 0, i32 4
  store i32 %81, ptr %83, align 8
  br label %84

84:                                               ; preds = %67
  ret void
}