; Function Attrs: mustprogress nounwind willreturn uwtable
define internal void @storePoint(ptr nocapture noundef readonly %0, i32 noundef %1, i32 noundef %2) #4 {
  %4 = getelementptr inbounds i8, ptr %0, i64 56
  %5 = load ptr, ptr %4, align 8
  %6 = getelementptr inbounds i8, ptr %5, i64 16
  %7 = load ptr, ptr %6, align 8
  %8 = getelementptr inbounds i8, ptr %5, i64 1048
  %9 = load i32, ptr %8, align 8
  %10 = getelementptr inbounds i8, ptr %5, i64 1052
  %11 = load i32, ptr %10, align 4
  %.not = icmp slt i32 %9, %11
  br i1 %.not, label %26, label %12

12:                                               ; preds = %3
  %13 = shl nsw i32 %11, 1
  %14 = getelementptr inbounds i8, ptr %5, i64 24
  %15 = icmp eq ptr %7, %14
  %16 = sext i32 %13 to i64
  %17 = shl nsw i64 %16, 2
  br i1 %15, label %18, label %22

18:                                               ; preds = %12
  %19 = tail call noalias ptr @malloc(i64 noundef %17) #11
  store ptr %19, ptr %6, align 8
  %20 = sext i32 %9 to i64
  %21 = shl nsw i64 %20, 2
  tail call void @llvm.memcpy.p0.p0.i64(ptr align 2 %19, ptr align 2 %7, i64 %21, i1 false)
  br label %24

22:                                               ; preds = %12
  %23 = tail call ptr @realloc(ptr noundef %7, i64 noundef %17) #12
  store ptr %23, ptr %6, align 8
  br label %24

24:                                               ; preds = %22, %18
  %25 = phi ptr [ %23, %22 ], [ %19, %18 ]
  store i32 %13, ptr %10, align 4
  br label %26

26:                                               ; preds = %24, %3
  %.0 = phi ptr [ %25, %24 ], [ %7, %3 ]
  %27 = sext i32 %9 to i64
  %28 = getelementptr inbounds %struct.XPoint, ptr %.0, i64 %27
  %29 = trunc i32 %1 to i16
  store i16 %29, ptr %28, align 2
  %30 = trunc i32 %2 to i16
  %31 = getelementptr inbounds i8, ptr %28, i64 2
  store i16 %30, ptr %31, align 2
  %32 = add nsw i32 %9, 1
  store i32 %32, ptr %8, align 8
  ret void
}